-----BEGIN CERTIFICATE-----
MIIDLDCCAhSgAwIBAgIUaIyBWWs+uhs29nUg1XN6v52kpE4wDQYJKoZIhvcNAQEL
BQAwFDESMBAGA1UEAwwJbG9jYWxob3N0MB4XDTIxMDgxNTA4MDEyMFoXDTI0MDkx
NDA4MDEyMFowFDESMBAGA1UEAwwJbG9jYWxob3N0MIIBIjANBgkqhkiG9w0BAQEF
AAOCAQ8AMIIBCgKCAQEAug6VTEUA/te/2pqPuMhbNfkeNUg4P+pwoMij14Noz5hg
6V5jRKADCb6eH+3VUvaZ2VM6kf4r6uNOcbZkxn1wo8dBzSVSiJ3NkiaFXesASrgo
esm7GMZFPpV9HQAB4JwSdGOgXELUGevo4x8bdFnG6H8KIBRS8PiUADF8TPQNCSWn
rufwB0a82cg7kqSGVJbHVrLy808oP02C7fWnGulvTZETdSOpBsaVQJhCX5pRs6Sd
h0c0QNazIeLY1Flp+bVLLfJs1tCFDbKpMlCRQYN4jZxYvhRK4iEQoENSSXv5QyT3
BcpX5J011k55VB1GLfnzNyPjvIdrjPDzh9whRkvdDQIDAQABo3YwdDBCBgNVHREE
OzA5gglsb2NhbGhvc3SCESouZG91YmxlY2xpY2submV0ghMqLmcuZG91YmxlY2xp
Y2submV0hwR/AAABMAsGA1UdDwQEAwIHgDATBgNVHSUEDDAKBggrBgEFBQcDATAM
BgNVHRMEBTADAQH/MA0GCSqGSIb3DQEBCwUAA4IBAQCFoBPuwFLrFNIleNHXCssD
wusUC5GXSM/sKV2pA6YQGirGu3hia5GAXFiyMhpO1m5igmeNnwc1BAkBbZrUitf0
LYNvtemkrydagotNAoDCeZxSVllhUD6mXNp0jfWJXDNPjoy+t25Xs5Yonslj9fim
+4SPhN1JCtblqo4cISjFBNJLu6Lljj8lyQkVGjzpqMdAnGdb4Q3OLdgqhY53rpJz
6Smh9EPqEsA11h6QqgNPWKRtvC8NsJL5WCUQ8SmYU4UUDax5Vp1KTXY/C9EQTucA
hst2Juxc1XJ2xyMdBmd1iWk0zbPokBSQ8HkS9NmoYFQIQG5i7eGl/GVftL88QaDy
-----END CERTIFICATE-----
Certificate:
    Data:
        Version: 3 (0x2)
        Serial Number:
            68:8c:81:59:6b:3e:ba:1b:36:f6:75:20:d5:73:7a:bf:9d:a4:a4:4e
        Signature Algorithm: sha256WithRSAEncryption
        Issuer: CN = localhost
        Validity
            Not Before: Aug 15 08:01:20 2021 GMT
            Not After : Sep 14 08:01:20 2024 GMT
        Subject: CN = localhost
        Subject Public Key Info:
            Public Key Algorithm: rsaEncryption
                Public-Key: (2048 bit)
                Modulus:
                    00:ba:0e:95:4c:45:00:fe:d7:bf:da:9a:8f:b8:c8:
                    5b:35:f9:1e:35:48:38:3f:ea:70:a0:c8:a3:d7:83:
                    68:cf:98:60:e9:5e:63:44:a0:03:09:be:9e:1f:ed:
                    d5:52:f6:99:d9:53:3a:91:fe:2b:ea:e3:4e:71:b6:
                    64:c6:7d:70:a3:c7:41:cd:25:52:88:9d:cd:92:26:
                    85:5d:eb:00:4a:b8:28:7a:c9:bb:18:c6:45:3e:95:
                    7d:1d:00:01:e0:9c:12:74:63:a0:5c:42:d4:19:eb:
                    e8:e3:1f:1b:74:59:c6:e8:7f:0a:20:14:52:f0:f8:
                    94:00:31:7c:4c:f4:0d:09:25:a7:ae:e7:f0:07:46:
                    bc:d9:c8:3b:92:a4:86:54:96:c7:56:b2:f2:f3:4f:
                    28:3f:4d:82:ed:f5:a7:1a:e9:6f:4d:91:13:75:23:
                    a9:06:c6:95:40:98:42:5f:9a:51:b3:a4:9d:87:47:
                    34:40:d6:b3:21:e2:d8:d4:59:69:f9:b5:4b:2d:f2:
                    6c:d6:d0:85:0d:b2:a9:32:50:91:41:83:78:8d:9c:
                    58:be:14:4a:e2:21:10:a0:43:52:49:7b:f9:43:24:
                    f7:05:ca:57:e4:9d:35:d6:4e:79:54:1d:46:2d:f9:
                    f3:37:23:e3:bc:87:6b:8c:f0:f3:87:dc:21:46:4b:
                    dd:0d
                Exponent: 65537 (0x10001)
        X509v3 extensions:
            X509v3 Subject Alternative Name: 
                DNS:localhost, DNS:*.doubleclick.net, DNS:*.g.doubleclick.net, IP Address:127.0.0.1
            X509v3 Key Usage: 
                Digital Signature
            X509v3 Extended Key Usage: 
                TLS Web Server Authentication
            X509v3 Basic Constraints: 
                CA:TRUE
    Signature Algorithm: sha256WithRSAEncryption
    Signature Value:
        85:a0:13:ee:c0:52:eb:14:d2:25:78:d1:d7:0a:cb:03:c2:eb:
        14:0b:91:97:48:cf:ec:29:5d:a9:03:a6:10:1a:2a:c6:bb:78:
        62:6b:91:80:5c:58:b2:32:1a:4e:d6:6e:62:82:67:8d:9f:07:
        35:04:09:01:6d:9a:d4:8a:d7:f4:2d:83:6f:b5:e9:a4:af:27:
        5a:82:8b:4d:02:80:c2:79:9c:52:56:59:61:50:3e:a6:5c:da:
        74:8d:f5:89:5c:33:4f:8e:8c:be:b7:6e:57:b3:96:28:9e:c9:
        63:f5:f8:a6:fb:84:8f:84:dd:49:0a:d6:e5:aa:8e:1c:21:28:
        c5:04:d2:4b:bb:a2:e5:8e:3f:25:c9:09:15:1a:3c:e9:a8:c7:
        40:9c:67:5b:e1:0d:ce:2d:d8:2a:85:8e:77:ae:92:73:e9:29:
        a1:f4:43:ea:12:c0:35:d6:1e:90:aa:03:4f:58:a4:6d:bc:2f:
        0d:b0:92:f9:58:25:10:f1:29:98:53:85:14:0d:ac:79:56:9d:
        4a:4d:76:3f:0b:d1:10:4e:e7:00:86:cb:76:26:ec:5c:d5:72:
        76:c7:23:1d:06:67:75:89:69:34:cd:b3:e8:90:14:90:f0:79:
        12:f4:d9:a8:60:54:08:40:6e:62:ed:e1:a5:fc:65:5f:b4:bf:
        3c:41:a0:f2
SHA1 Fingerprint=3E:8E:98:3D:53:30:E0:A9:D5:08:C7:7B:02:90:8F:A4:0D:E4:10:B3
